target datalayout = "e-m:e-p270:32:32-p271:32:32-p272:64:64-i64:64-i128:128-f80:128-n8:16:32:64-S128"
target triple = "x86_64-pc-linux-gnu"

%struct.lua_State = type { ptr, i8, i8, i8, i8, i16, %union.StkIdRel, ptr, ptr, %union.StkIdRel, %union.StkIdRel, ptr, %union.StkIdRel, ptr, ptr, ptr, %struct.CallInfo, ptr, i64, i32, i32, i32, i32, i32, %struct.anon.2 }
%union.StkIdRel = type { ptr }
%struct.CallInfo = type { %union.StkIdRel, %union.StkIdRel, ptr, ptr, %union.anon, %union.anon.1, i32 }
%union.anon = type { %struct.anon.0 }
%struct.anon.0 = type { ptr, i64, i64 }
%union.anon.1 = type { i32 }
%struct.anon.2 = type { i32, i32 }

; Function Attrs: nounwind uwtable
define hidden void @luaE_incCstack(ptr noundef %0) #0 {
  %2 = alloca ptr, align 8
  store ptr %0, ptr %2, align 8, !tbaa !22
  %3 = load ptr, ptr %2, align 8, !tbaa !22
  %4 = getelementptr inbounds nuw %struct.lua_State, ptr %3, i32 0, i32 19
  %5 = load i32, ptr %4, align 8, !tbaa !36
  %6 = add i32 %5, 1
  store i32 %6, ptr %4, align 8, !tbaa !36
  %7 = load ptr, ptr %2, align 8, !tbaa !22
  %8 = getelementptr inbounds nuw %struct.lua_State, ptr %7, i32 0, i32 19
  %9 = load i32, ptr %8, align 8, !tbaa !36
  %10 = and i32 %9, 65535
  %11 = icmp uge i32 %10, 200
  %12 = zext i1 %11 to i32
  %13 = icmp ne i32 %12, 0
  %14 = zext i1 %13 to i32
  %15 = sext i32 %14 to i64
  %16 = call i64 @llvm.expect.i64(i64 %15, i64 0)
  %17 = icmp ne i64 %16, 0
  br i1 %17, label %18, label %20

18:                                               ; preds = %1
  %19 = load ptr, ptr %2, align 8, !tbaa !22
  call void @luaE_checkcstack(ptr noundef %19)
  br label %20

20:                                               ; preds = %18, %1
  ret void
}