; Function Attrs: nounwind uwtable
define hidden void @luaE_incCstack(ptr noundef %0) local_unnamed_addr #2 {
  %2 = getelementptr inbounds nuw i8, ptr %0, i64 176
  %3 = load i32, ptr %2, align 8, !tbaa !32
  %4 = add i32 %3, 1
  store i32 %4, ptr %2, align 8, !tbaa !32
  %5 = and i32 %4, 65528
  %6 = icmp samesign ugt i32 %5, 199
  br i1 %6, label %7, label %8, !prof !33

7:                                                ; preds = %1
  tail call void @luaE_checkcstack(ptr noundef nonnull %0)
  br label %8

8:                                                ; preds = %7, %1
  ret void
}